(i__main__
Board
p0
(dp1
S'board'
p2
(lp3
(lp4
S'.'
p5
ag5
ag5
ag5
ag5
ag5
ag5
aa(lp6
g5
ag5
ag5
ag5
ag5
ag5
ag5
aa(lp7
g5
ag5
ag5
ag5
ag5
ag5
ag5
aa(lp8
g5
ag5
ag5
ag5
ag5
ag5
ag5
aa(lp9
g5
ag5
ag5
ag5
ag5
ag5
ag5
aa(lp10
g5
ag5
ag5
ag5
ag5
ag5
ag5
aasS'winAmount'
p11
I4
sS'col'
p12
I6
sS'row'
p13
I7
sb.